Certificate:
    Data:
        Version: 3 (0x2)
        Serial Number:
            d8:d3:e3:a6:cb:e3:cd:a4
        Signature Algorithm: sha256WithRSAEncryption
        Issuer: C=FI, L=Tuusula, O=w1.fi, CN=Root CA
        Validity
            Not Before: Apr  6 09:47:59 2026 GMT
            Not After : Apr  6 09:47:59 2027 GMT
        Subject: C=FI, O=w1.fi, CN=ocsp.w1.fi
        Subject Public Key Info:
            Public Key Algorithm: rsaEncryption
                Public-Key: (2048 bit)
                Modulus:
                    00:a7:22:85:5d:bb:3b:1c:02:9a:01:73:aa:88:63:
                    6e:a1:43:33:b5:fd:02:fe:1f:c8:23:04:8b:8c:51:
                    52:5b:e0:cc:62:60:2a:aa:ba:88:4f:41:39:6b:fb:
                    34:c0:a2:7a:77:2e:e1:56:9e:ef:ca:ae:67:d5:f9:
                    8b:5f:ab:ae:87:e1:b0:14:23:03:ad:69:4b:df:2b:
                    91:70:75:cd:bf:65:40:12:d0:eb:2f:89:f0:41:15:
                    1b:ed:4c:0d:3a:92:96:91:f8:cd:54:38:15:eb:6b:
                    45:9f:52:85:7e:4e:15:ab:4e:4b:eb:22:c2:5d:be:
                    ff:36:6f:42:27:d8:4b:c6:e1:be:f8:08:cf:ac:fd:
                    51:30:a2:e8:80:13:00:05:b6:05:55:42:0b:fa:1e:
                    40:84:50:09:8c:25:35:54:25:45:39:9f:4e:7c:0a:
                    d9:c4:4a:0c:16:4e:3e:68:7f:1b:ad:c9:53:08:5c:
                    b8:04:d4:d6:93:62:fd:af:f9:b4:1d:f4:96:3e:9b:
                    9d:14:6d:1c:6c:23:ae:3d:c7:b4:cf:31:90:20:6a:
                    80:99:62:7e:5c:e9:d5:d5:bd:59:4d:a3:d9:dc:e9:
                    fb:e8:7b:65:87:d5:f9:49:9e:be:0e:f3:a9:21:de:
                    94:e8:54:fc:80:cf:da:e3:8f:9a:c6:4c:76:18:0e:
                    fe:ab
                Exponent: 65537 (0x10001)
        X509v3 extensions:
            X509v3 Basic Constraints: 
                CA:FALSE
            X509v3 Key Usage: 
                Digital Signature, Non Repudiation, Key Encipherment
            X509v3 Extended Key Usage: 
                OCSP Signing
            X509v3 Subject Key Identifier: 
                2D:D5:2E:6F:1C:49:B1:7C:C9:A1:0C:66:32:35:AB:A8:96:F8:21:A2
            X509v3 Authority Key Identifier: 
                A4:FD:B9:39:1B:81:B3:AA:EB:88:1D:D4:81:A9:B5:11:70:CC:A7:E1
    Signature Algorithm: sha256WithRSAEncryption
    Signature Value:
        2f:6a:9d:98:3a:b7:25:36:ce:09:91:ac:1b:c9:03:9b:c3:c2:
        41:e2:ca:c0:56:d9:79:88:71:6e:8d:3c:f6:9e:1e:54:c6:7a:
        d0:a3:64:0d:27:b4:33:f4:87:07:29:9f:0b:19:c8:23:26:95:
        3b:64:00:40:4e:b5:93:3e:46:1f:02:19:9c:dc:c2:a4:53:b5:
        e5:bd:a6:89:8f:b3:68:49:1e:9a:23:7b:ec:9b:0b:5a:21:9f:
        af:be:90:79:01:0f:3f:50:b5:21:a0:76:ff:bf:03:23:19:bf:
        a4:82:87:50:f5:01:42:b0:a5:af:b4:50:18:80:29:98:21:97:
        3b:62:f6:8d:f9:5f:43:7c:9d:1b:36:56:19:e9:f5:7c:b7:74:
        11:09:07:36:d1:22:8c:fd:08:1f:e3:89:19:8e:fe:85:96:01:
        5a:4e:87:7c:ac:98:5e:ac:50:a3:f3:fd:35:ff:a7:80:78:b7:
        a2:15:c1:1d:e5:9d:a4:e5:94:43:a4:5f:4e:0e:d3:33:52:d7:
        5e:2b:ba:5d:b4:07:87:80:c7:5a:6e:a8:86:5d:68:6f:02:6d:
        74:da:34:e7:dd:ad:17:cb:6a:fa:1d:d4:6f:d4:e4:4f:8c:50:
        aa:56:2a:ee:cd:0a:a5:db:32:13:6e:36:d2:b4:73:a0:d6:99:
        be:6c:27:02
-----BEGIN CERTIFICATE-----
MIIDZTCCAk2gAwIBAgIJANjT46bL482kMA0GCSqGSIb3DQEBCwUAMEExCzAJBgNV
BAYTAkZJMRAwDgYDVQQHDAdUdXVzdWxhMQ4wDAYDVQQKDAV3MS5maTEQMA4GA1UE
AwwHUm9vdCBDQTAeFw0yNjA0MDYwOTQ3NTlaFw0yNzA0MDYwOTQ3NTlaMDIxCzAJ
BgNVBAYTAkZJMQ4wDAYDVQQKDAV3MS5maTETMBEGA1UEAwwKb2NzcC53MS5maTCC
ASIwDQYJKoZIhvcNAQEBBQADggEPADCCAQoCggEBAKcihV27OxwCmgFzqohjbqFD
M7X9Av4fyCMEi4xRUlvgzGJgKqq6iE9BOWv7NMCiencu4Vae78quZ9X5i1+rrofh
sBQjA61pS98rkXB1zb9lQBLQ6y+J8EEVG+1MDTqSlpH4zVQ4FetrRZ9ShX5OFatO
S+siwl2+/zZvQifYS8bhvvgIz6z9UTCi6IATAAW2BVVCC/oeQIRQCYwlNVQlRTmf
TnwK2cRKDBZOPmh/G63JUwhcuATU1pNi/a/5tB30lj6bnRRtHGwjrj3HtM8xkCBq
gJliflzp1dW9WU2j2dzp++h7ZYfV+Umevg7zqSHelOhU/IDP2uOPmsZMdhgO/qsC
AwEAAaNvMG0wCQYDVR0TBAIwADALBgNVHQ8EBAMCBeAwEwYDVR0lBAwwCgYIKwYB
BQUHAwkwHQYDVR0OBBYEFC3VLm8cSbF8yaEMZjI1q6iW+CGiMB8GA1UdIwQYMBaA
FKT9uTkbgbOq64gd1IGptRFwzKfhMA0GCSqGSIb3DQEBCwUAA4IBAQAvap2YOrcl
Ns4JkawbyQObw8JB4srAVtl5iHFujTz2nh5UxnrQo2QNJ7Qz9IcHKZ8LGcgjJpU7
ZABATrWTPkYfAhmc3MKkU7XlvaaJj7NoSR6aI3vsmwtaIZ+vvpB5AQ8/ULUhoHb/
vwMjGb+kgodQ9QFCsKWvtFAYgCmYIZc7YvaN+V9DfJ0bNlYZ6fV8t3QRCQc20SKM
/Qgf44kZjv6FlgFaTod8rJherFCj8/01/6eAeLeiFcEd5Z2k5ZRDpF9ODtMzUtde
K7pdtAeHgMdabqiGXWhvAm102jTn3a0Xy2r6HdRv1ORPjFCqViruzQql2zITbjbS
tHOg1pm+bCcC
-----END CERTIFICATE-----
