Certificate:
    Data:
        Version: 3 (0x2)
        Serial Number:
            ad:8c:09:e8:fb:a2:88:d8
        Signature Algorithm: sha384WithRSAEncryption
        Issuer: C=FI, L=Helsinki, O=w1.fi, CN=Suite B RSA 3k Root CA
        Validity
            Not Before: Apr  6 09:50:10 2026 GMT
            Not After : Apr  5 09:50:10 2028 GMT
        Subject: C=FI, O=w1.fi, CN=user-rsa3072
        Subject Public Key Info:
            Public Key Algorithm: rsaEncryption
                Public-Key: (3072 bit)
                Modulus:
                    00:92:77:67:8e:44:34:83:a8:37:f9:a9:c4:72:5c:
                    71:72:9d:35:1d:3d:8c:34:22:5c:24:f8:87:81:de:
                    de:ac:a5:93:77:c5:38:a4:82:9c:8c:06:9b:14:8b:
                    52:09:32:4c:31:c5:f8:e9:2f:64:8a:39:0a:70:9e:
                    4e:8a:9c:bc:a5:ab:78:18:52:44:75:fe:c3:00:61:
                    e7:1f:45:c0:12:72:e4:38:9e:28:9d:f6:76:60:70:
                    b3:7b:11:ca:90:98:2a:ea:26:c0:5c:ae:a9:12:cc:
                    52:11:a6:02:ac:e8:59:56:7a:a8:93:ec:fd:06:ee:
                    ac:e8:af:17:68:57:4f:39:ca:d4:48:49:8a:b4:8d:
                    3e:21:51:a3:96:e7:9f:24:e5:f5:10:e7:36:fe:8e:
                    33:b2:7d:22:66:8f:42:65:cf:0f:4f:cc:a3:24:0f:
                    e3:ba:98:89:35:a7:54:99:ec:81:47:c4:2f:b2:3b:
                    3b:b2:4c:ce:a4:a8:5a:66:10:40:8e:0d:7d:67:d8:
                    ed:1a:fd:e5:61:16:db:f5:4c:73:40:39:e3:7d:6f:
                    27:26:08:68:18:02:df:3b:5a:04:0a:08:c5:53:bb:
                    1d:00:91:6c:f6:38:2a:f0:aa:9f:2b:36:6e:95:24:
                    a7:1a:84:d8:5c:6a:f8:d5:3f:62:0f:20:4b:b7:96:
                    c6:c2:1b:f8:81:64:13:15:7a:9b:5d:98:ee:0f:d9:
                    73:37:d5:3c:9f:35:52:93:df:72:9d:89:d4:9f:20:
                    f2:13:85:12:00:7c:23:27:ce:f9:dd:e2:b7:82:09:
                    a2:fa:26:54:22:c7:fd:b4:fa:1a:d3:6d:29:8f:1b:
                    67:13:2f:d8:e2:f0:5c:75:9e:aa:79:fc:c1:b7:48:
                    5d:08:12:01:37:78:13:f9:53:37:3a:a8:21:38:e7:
                    5f:74:fb:85:53:6b:21:6b:82:c9:a5:41:2c:a3:39:
                    74:14:a0:5c:03:c8:13:17:55:a6:15:45:52:3c:b9:
                    b9:3f:fe:d9:a8:14:6f:20:c5:21
                Exponent: 65537 (0x10001)
        X509v3 extensions:
            X509v3 Basic Constraints: 
                CA:FALSE
            X509v3 Subject Key Identifier: 
                B1:4F:36:17:24:40:AD:6B:05:33:87:C4:AD:4F:4A:53:AF:F5:D6:23
            X509v3 Authority Key Identifier: 
                21:F7:EF:DA:C3:34:3A:ED:CD:D5:50:C0:B3:BA:09:EE:3F:80:D7:70
            X509v3 Subject Alternative Name: 
                email:user-rsa3072@w1.fi
            X509v3 Extended Key Usage: 
                TLS Web Client Authentication
            X509v3 Key Usage: 
                Digital Signature, Key Encipherment
    Signature Algorithm: sha384WithRSAEncryption
    Signature Value:
        b0:ac:5a:2b:c7:00:fa:9f:81:f4:f6:52:95:3f:ce:9b:87:57:
        5e:be:a8:37:3c:b9:6f:f8:ce:57:74:27:15:8b:03:e3:f6:3a:
        a9:14:0f:6e:0d:18:5d:44:80:9a:fb:87:5f:94:ae:55:ad:f5:
        f3:72:5e:40:48:9c:42:2a:ca:4e:b7:96:ea:5d:cb:e5:01:29:
        ee:f4:12:de:e9:77:de:b1:71:e7:0f:12:84:7b:a3:a9:ea:ea:
        cb:bc:34:02:33:5c:57:f5:81:f5:c7:a5:92:16:dc:58:5c:cf:
        1c:ff:ec:76:ff:9b:c3:b9:69:80:24:53:e6:59:1f:7e:6a:06:
        eb:33:36:05:f0:9f:26:f7:92:1d:a7:2c:67:d9:8f:62:05:d3:
        8c:65:51:d5:8d:71:33:72:0f:bb:c2:e1:c0:1e:06:84:61:6f:
        10:8d:35:1d:f0:95:53:63:09:c3:04:7c:d0:e9:49:bd:3d:64:
        ee:4b:8c:25:ca:0a:38:ad:65:30:16:a5:0e:4d:5f:39:1a:0a:
        9b:2c:4a:88:9c:ae:f2:45:2c:c5:16:14:a4:e8:ae:bb:fb:50:
        c3:cb:a2:5a:01:86:2e:fc:39:e4:56:c2:7e:7c:aa:17:98:28:
        c2:34:f6:56:af:31:9c:93:2b:3a:e9:14:27:1b:7e:30:0f:92:
        63:0f:5f:a5:d9:61:c6:9c:7a:39:85:86:ce:61:fe:13:b4:15:
        e2:ed:f4:08:3c:e1:68:15:f7:a3:c8:8e:e9:77:22:71:7c:a7:
        77:1e:e8:2b:33:60:3e:e6:74:54:ac:74:b8:13:8d:b6:c7:ca:
        8e:03:4a:d7:a3:26:f6:fc:a5:ec:fc:1c:3e:52:cc:1d:ba:6f:
        c8:1c:61:9e:90:3c:d1:d0:d2:c5:9a:db:33:84:2c:19:b1:98:
        bb:09:32:85:19:8c:33:2f:9e:78:db:15:91:6e:92:97:9d:92:
        1d:94:9f:83:51:b5:f2:2d:43:2b:98:47:03:97:c5:b1:04:bd:
        fd:f2:b2:af:1f:8f
-----BEGIN CERTIFICATE-----
MIIEmDCCAwCgAwIBAgIJAK2MCej7oojYMA0GCSqGSIb3DQEBDAUAMFExCzAJBgNV
BAYTAkZJMREwDwYDVQQHDAhIZWxzaW5raTEOMAwGA1UECgwFdzEuZmkxHzAdBgNV
BAMMFlN1aXRlIEIgUlNBIDNrIFJvb3QgQ0EwHhcNMjYwNDA2MDk1MDEwWhcNMjgw
NDA1MDk1MDEwWjA0MQswCQYDVQQGEwJGSTEOMAwGA1UECgwFdzEuZmkxFTATBgNV
BAMMDHVzZXItcnNhMzA3MjCCAaIwDQYJKoZIhvcNAQEBBQADggGPADCCAYoCggGB
AJJ3Z45ENIOoN/mpxHJccXKdNR09jDQiXCT4h4He3qylk3fFOKSCnIwGmxSLUgky
TDHF+OkvZIo5CnCeToqcvKWreBhSRHX+wwBh5x9FwBJy5DieKJ32dmBws3sRypCY
KuomwFyuqRLMUhGmAqzoWVZ6qJPs/QburOivF2hXTznK1EhJirSNPiFRo5bnnyTl
9RDnNv6OM7J9ImaPQmXPD0/MoyQP47qYiTWnVJnsgUfEL7I7O7JMzqSoWmYQQI4N
fWfY7Rr95WEW2/VMc0A5431vJyYIaBgC3ztaBAoIxVO7HQCRbPY4KvCqnys2bpUk
pxqE2Fxq+NU/Yg8gS7eWxsIb+IFkExV6m12Y7g/ZczfVPJ81UpPfcp2J1J8g8hOF
EgB8IyfO+d3it4IJovomVCLH/bT6GtNtKY8bZxMv2OLwXHWeqnn8wbdIXQgSATd4
E/lTNzqoITjnX3T7hVNrIWuCyaVBLKM5dBSgXAPIExdVphVFUjy5uT/+2agUbyDF
IQIDAQABo4GPMIGMMAkGA1UdEwQCMAAwHQYDVR0OBBYEFLFPNhckQK1rBTOHxK1P
SlOv9dYjMB8GA1UdIwQYMBaAFCH379rDNDrtzdVQwLO6Ce4/gNdwMB0GA1UdEQQW
MBSBEnVzZXItcnNhMzA3MkB3MS5maTATBgNVHSUEDDAKBggrBgEFBQcDAjALBgNV
HQ8EBAMCBaAwDQYJKoZIhvcNAQEMBQADggGBALCsWivHAPqfgfT2UpU/zpuHV16+
qDc8uW/4zld0JxWLA+P2OqkUD24NGF1EgJr7h1+UrlWt9fNyXkBInEIqyk63lupd
y+UBKe70Et7pd96xcecPEoR7o6nq6su8NAIzXFf1gfXHpZIW3Fhczxz/7Hb/m8O5
aYAkU+ZZH35qBuszNgXwnyb3kh2nLGfZj2IF04xlUdWNcTNyD7vC4cAeBoRhbxCN
NR3wlVNjCcMEfNDpSb09ZO5LjCXKCjitZTAWpQ5NXzkaCpssSoicrvJFLMUWFKTo
rrv7UMPLoloBhi78OeRWwn58qheYKMI09lavMZyTKzrpFCcbfjAPkmMPX6XZYcac
ejmFhs5h/hO0FeLt9Ag84WgV96PIjul3InF8p3ce6CszYD7mdFSsdLgTjbbHyo4D
StejJvb8pez8HD5SzB26b8gcYZ6QPNHQ0sWa2zOELBmxmLsJMoUZjDMvnnjbFZFu
kpedkh2Un4NRtfItQyuYRwOXxbEEvf3ysq8fjw==
-----END CERTIFICATE-----
