Certificate:
    Data:
        Version: 3 (0x2)
        Serial Number:
            ad:8c:09:e8:fb:a2:88:d7
        Signature Algorithm: sha384WithRSAEncryption
        Issuer: C=FI, L=Helsinki, O=w1.fi, CN=Suite B RSA 3k Root CA
        Validity
            Not Before: Apr  6 09:50:10 2026 GMT
            Not After : Apr  5 09:50:10 2028 GMT
        Subject: C=FI, O=w1.fi, CN=rsa3072.server.w1.fi
        Subject Public Key Info:
            Public Key Algorithm: rsaEncryption
                Public-Key: (3072 bit)
                Modulus:
                    00:fe:a9:5c:59:8f:aa:80:cb:b8:4a:89:f9:3a:e8:
                    7d:24:51:b8:f2:05:c6:42:e0:68:b5:a4:f1:7e:8a:
                    31:a2:e0:0c:58:c5:80:20:cb:20:f0:0e:c1:6b:4d:
                    e1:d7:eb:cc:45:48:c9:b0:0f:8f:ef:80:db:1b:60:
                    02:af:ef:e8:0a:29:c8:04:df:70:92:e9:f1:dc:6a:
                    47:3b:5a:6f:10:e6:19:4d:93:92:d0:0a:8e:a2:4d:
                    32:9f:13:c8:34:6c:1a:4c:ec:a4:ed:89:2a:03:fb:
                    18:0d:7f:0d:de:3e:7f:d8:5d:27:a5:e1:7b:62:63:
                    71:61:45:52:f9:47:10:1d:28:c2:5d:73:fb:9d:03:
                    68:bf:6d:a4:12:12:74:c7:d0:b8:87:43:b3:67:87:
                    ce:6e:7b:58:1f:2f:32:eb:10:1f:e7:74:5c:3a:d9:
                    8c:18:c8:04:95:6b:e3:3b:25:4c:0a:db:99:f3:59:
                    b0:8e:7a:de:fa:e4:db:50:15:90:a2:30:e2:8a:c6:
                    a9:06:30:e3:d7:29:dd:26:a8:95:6e:6e:f5:c4:42:
                    d0:f7:7e:40:4d:3d:fd:ad:2f:cf:40:dd:d4:c0:6b:
                    80:a2:34:7e:05:2f:bf:32:44:0b:d4:78:6d:2a:12:
                    08:7c:84:b4:4d:51:5a:e5:84:6e:17:26:43:8c:83:
                    6b:16:f3:5f:fa:b3:9f:84:d3:2b:ab:f3:3e:2c:23:
                    65:b9:11:76:e1:85:12:ce:bb:03:38:59:82:bf:4c:
                    77:ba:3b:90:51:9c:67:76:b0:1e:74:1e:4c:c8:b1:
                    35:d6:37:29:dc:7e:c3:89:cc:86:9e:08:31:9c:70:
                    ea:5a:6c:87:92:53:eb:99:fb:33:d2:32:f1:81:31:
                    78:a0:c9:7d:6d:d9:6b:07:fa:c8:4a:67:57:2c:8c:
                    a6:ce:e5:7e:36:95:f1:09:bd:df:bf:c8:53:3d:21:
                    67:fd:93:cb:b2:7a:b5:56:61:9e:2f:ce:69:fa:fa:
                    56:0a:6b:9c:69:78:f7:4e:54:73
                Exponent: 65537 (0x10001)
        X509v3 extensions:
            X509v3 Basic Constraints: critical
                CA:FALSE
            X509v3 Subject Key Identifier: 
                82:D7:75:95:94:9E:35:F7:1F:91:6D:37:9F:26:4F:3D:9D:C1:6E:96
            X509v3 Authority Key Identifier: 
                21:F7:EF:DA:C3:34:3A:ED:CD:D5:50:C0:B3:BA:09:EE:3F:80:D7:70
            X509v3 Subject Alternative Name: critical
                DNS:rsa3072.server.w1.fi
            X509v3 Extended Key Usage: critical
                TLS Web Server Authentication
            X509v3 Key Usage: 
                Digital Signature, Key Encipherment
    Signature Algorithm: sha384WithRSAEncryption
    Signature Value:
        06:f1:7f:66:b1:09:6d:c9:cc:5e:70:b6:48:4e:5c:ea:62:45:
        50:ea:2c:10:37:e2:84:e0:3d:97:e5:5e:3f:c2:27:37:93:01:
        8f:82:86:04:d3:8c:e0:5d:4b:27:de:30:ab:73:d0:e3:cf:60:
        f4:83:10:26:f9:91:01:05:fa:34:be:17:89:8b:16:9e:0b:b3:
        3a:27:22:84:89:6c:de:06:66:b0:3b:72:bb:2f:fb:eb:64:ce:
        71:58:95:2b:b9:98:7e:01:64:a8:41:ea:e4:0c:57:2a:b6:b5:
        e9:e5:09:bb:c3:0e:f2:2a:4d:4c:83:8c:67:3e:92:53:dc:e1:
        e5:e7:c1:4c:df:77:35:3a:83:7f:36:65:0c:21:41:5a:60:da:
        cb:aa:4f:23:d0:14:89:79:1d:56:cd:19:a9:b1:cd:f2:31:7d:
        2e:f0:0b:a5:19:34:16:af:97:9e:33:81:97:9e:a7:8f:69:72:
        31:c3:5d:a1:a3:29:e8:0d:37:5f:2c:b3:5f:76:dc:4a:ba:8b:
        5b:0e:4e:62:a3:e6:2b:5a:f6:1a:f6:66:76:dc:a9:ef:c2:85:
        0d:cf:cf:dd:ed:22:5e:9e:13:77:3c:aa:bb:f4:32:2a:2e:06:
        76:5f:84:2b:d0:1f:bc:4e:1a:96:6b:7c:35:7f:7d:a7:32:75:
        28:68:97:25:d3:92:a0:1b:4e:f1:e0:1c:dc:b4:e0:76:ba:55:
        7f:83:23:74:61:90:ac:8f:68:84:d7:a5:9c:a9:c8:a2:f6:f5:
        7c:a1:dd:75:5f:fe:87:d9:98:80:a9:f5:78:0b:24:d9:e4:72:
        59:41:d5:30:d2:a6:83:47:3e:e3:d4:fa:de:b0:9c:18:f5:af:
        f9:6e:dc:8e:ee:e5:e4:b7:e0:91:60:01:68:4a:4f:90:32:95:
        77:c1:2d:e9:db:28:a0:91:c0:94:00:05:c2:19:65:93:ad:c0:
        9c:c8:13:b6:7a:51:35:d5:89:72:c2:5b:93:f9:39:e8:0c:9f:
        9d:71:ea:2d:25:0f
-----BEGIN CERTIFICATE-----
MIIEqzCCAxOgAwIBAgIJAK2MCej7oojXMA0GCSqGSIb3DQEBDAUAMFExCzAJBgNV
BAYTAkZJMREwDwYDVQQHDAhIZWxzaW5raTEOMAwGA1UECgwFdzEuZmkxHzAdBgNV
BAMMFlN1aXRlIEIgUlNBIDNrIFJvb3QgQ0EwHhcNMjYwNDA2MDk1MDEwWhcNMjgw
NDA1MDk1MDEwWjA8MQswCQYDVQQGEwJGSTEOMAwGA1UECgwFdzEuZmkxHTAbBgNV
BAMMFHJzYTMwNzIuc2VydmVyLncxLmZpMIIBojANBgkqhkiG9w0BAQEFAAOCAY8A
MIIBigKCAYEA/qlcWY+qgMu4Son5Ouh9JFG48gXGQuBotaTxfooxouAMWMWAIMsg
8A7Ba03h1+vMRUjJsA+P74DbG2ACr+/oCinIBN9wkunx3GpHO1pvEOYZTZOS0AqO
ok0ynxPINGwaTOyk7YkqA/sYDX8N3j5/2F0npeF7YmNxYUVS+UcQHSjCXXP7nQNo
v22kEhJ0x9C4h0OzZ4fObntYHy8y6xAf53RcOtmMGMgElWvjOyVMCtuZ81mwjnre
+uTbUBWQojDiisapBjDj1yndJqiVbm71xELQ935ATT39rS/PQN3UwGuAojR+BS+/
MkQL1HhtKhIIfIS0TVFa5YRuFyZDjINrFvNf+rOfhNMrq/M+LCNluRF24YUSzrsD
OFmCv0x3ujuQUZxndrAedB5MyLE11jcp3H7DicyGnggxnHDqWmyHklPrmfsz0jLx
gTF4oMl9bdlrB/rISmdXLIymzuV+NpXxCb3fv8hTPSFn/ZPLsnq1VmGeL85p+vpW
CmucaXj3TlRzAgMBAAGjgZowgZcwDAYDVR0TAQH/BAIwADAdBgNVHQ4EFgQUgtd1
lZSeNfcfkW03nyZPPZ3BbpYwHwYDVR0jBBgwFoAUIffv2sM0Ou3N1VDAs7oJ7j+A
13AwIgYDVR0RAQH/BBgwFoIUcnNhMzA3Mi5zZXJ2ZXIudzEuZmkwFgYDVR0lAQH/
BAwwCgYIKwYBBQUHAwEwCwYDVR0PBAQDAgWgMA0GCSqGSIb3DQEBDAUAA4IBgQAG
8X9msQltycxecLZITlzqYkVQ6iwQN+KE4D2X5V4/wic3kwGPgoYE04zgXUsn3jCr
c9Djz2D0gxAm+ZEBBfo0vheJixaeC7M6JyKEiWzeBmawO3K7L/vrZM5xWJUruZh+
AWSoQerkDFcqtrXp5Qm7ww7yKk1Mg4xnPpJT3OHl58FM33c1OoN/NmUMIUFaYNrL
qk8j0BSJeR1WzRmpsc3yMX0u8AulGTQWr5eeM4GXnqePaXIxw12hoynoDTdfLLNf
dtxKuotbDk5io+YrWvYa9mZ23KnvwoUNz8/d7SJenhN3PKq79DIqLgZ2X4Qr0B+8
ThqWa3w1f32nMnUoaJcl05KgG07x4BzctOB2ulV/gyN0YZCsj2iE16Wcqcii9vV8
od11X/6H2ZiAqfV4CyTZ5HJZQdUw0qaDRz7j1PresJwY9a/5btyO7uXkt+CRYAFo
Sk+QMpV3wS3p2yigkcCUAAXCGWWTrcCcyBO2elE11YlywluT+TnoDJ+dceotJQ8=
-----END CERTIFICATE-----
