Certificate:
    Data:
        Version: 3 (0x2)
        Serial Number:
            ad:8c:09:e8:fb:a2:88:d9
        Signature Algorithm: sha384WithRSAEncryption
        Issuer: C=FI, L=Helsinki, O=w1.fi, CN=Suite B RSA 3k Root CA
        Validity
            Not Before: Apr  6 09:50:10 2026 GMT
            Not After : Apr  5 09:50:10 2028 GMT
        Subject: C=FI, O=w1.fi, CN=user-rsa3072-rsa2048
        Subject Public Key Info:
            Public Key Algorithm: rsaEncryption
                Public-Key: (2048 bit)
                Modulus:
                    00:db:66:ff:8b:95:66:96:2e:4a:74:02:80:43:fc:
                    09:fa:b6:41:78:09:f8:e9:bf:6b:41:fd:5b:bf:cc:
                    66:d8:07:c3:0d:ec:48:97:8d:2c:4f:58:f5:b5:27:
                    07:ee:48:7c:6b:98:a2:76:e8:8b:94:11:77:68:36:
                    43:1f:2c:88:9f:d6:40:df:ec:27:16:63:ae:34:1c:
                    d5:ec:26:c5:d9:ad:77:a9:73:14:86:a3:a4:2e:67:
                    63:fd:e8:d7:dd:c7:18:67:0a:d3:af:bf:7d:20:9a:
                    67:fd:5c:c0:7c:6e:cc:d8:ab:3d:2b:8e:ae:09:0c:
                    b5:23:d9:b4:f9:fb:e2:69:e3:69:05:28:5d:ee:37:
                    1b:c7:c0:ba:83:ce:e1:30:62:1f:a9:dd:ab:9e:d4:
                    dd:8c:e4:a4:e0:1f:a5:dc:95:48:02:a0:9f:f4:a5:
                    a8:71:c8:8f:06:be:4c:4e:41:8c:7f:91:47:a8:06:
                    6d:46:c3:49:b8:af:c5:27:46:41:e2:2c:b6:6d:68:
                    66:da:c0:0c:84:be:df:61:ca:49:47:f7:19:66:36:
                    09:05:1b:27:9b:80:43:f0:55:41:b4:4e:0f:25:71:
                    e5:ba:b8:dc:72:b0:b5:49:a8:95:02:49:a8:67:2a:
                    78:f3:b4:0e:ab:69:05:e9:d9:30:ad:b0:bd:26:f0:
                    8d:33
                Exponent: 65537 (0x10001)
        X509v3 extensions:
            X509v3 Basic Constraints: 
                CA:FALSE
            X509v3 Subject Key Identifier: 
                CC:85:AA:3D:E4:37:51:3E:70:46:96:8E:00:65:C3:81:20:E0:E4:87
            X509v3 Authority Key Identifier: 
                21:F7:EF:DA:C3:34:3A:ED:CD:D5:50:C0:B3:BA:09:EE:3F:80:D7:70
            X509v3 Subject Alternative Name: 
                email:user-rsa3072-rsa2048@w1.fi
            X509v3 Extended Key Usage: 
                TLS Web Client Authentication
            X509v3 Key Usage: 
                Digital Signature, Key Encipherment
    Signature Algorithm: sha384WithRSAEncryption
    Signature Value:
        ce:91:f7:10:fe:16:91:71:30:f2:8a:53:c6:49:43:b6:0e:90:
        d5:8d:d9:bb:1a:78:f1:01:ee:2f:5a:54:14:88:c7:d1:7f:55:
        84:4d:41:55:3c:4f:ac:79:03:ad:6f:c3:b8:24:d8:ec:28:09:
        6c:b4:0f:e1:7f:67:c8:3a:66:6b:eb:30:c1:a9:a8:8c:cc:16:
        69:09:a1:75:2c:be:43:7b:c6:3f:8b:8c:76:4f:cb:6a:b0:8d:
        aa:a3:fe:66:5c:fd:af:a3:43:e4:48:62:dd:65:7c:6f:12:f0:
        af:cd:c3:4a:47:07:f1:fc:8e:89:05:b9:06:a6:22:ac:c5:da:
        6a:e1:69:1e:f9:dd:a7:a9:ec:85:0e:20:1b:d7:9b:c0:4c:0c:
        5a:32:13:f2:f8:74:b8:83:26:e8:92:ea:cc:18:75:14:76:c8:
        af:d9:99:ee:e7:90:75:75:86:04:1a:60:88:05:a7:0e:b5:a9:
        2b:4a:26:8c:c0:62:34:ba:4f:07:c0:55:7d:a8:e7:8c:64:33:
        33:dc:3b:cf:12:6a:e0:6e:65:67:38:db:82:c8:05:c3:54:20:
        99:c0:69:58:a1:48:96:db:ec:80:84:b5:8f:b6:1e:0d:40:9c:
        06:d6:2a:c9:b3:8a:93:f4:a2:98:35:b0:45:17:37:fe:9e:4c:
        c4:50:d6:81:a5:64:73:d7:b5:90:7c:3d:89:39:ed:d5:08:7c:
        ce:d5:bb:23:9f:62:ec:4a:93:f2:6c:ec:18:03:4e:64:91:ff:
        59:bc:40:e1:8b:03:3a:87:a2:69:52:33:73:43:ec:4f:e5:90:
        76:c1:45:cf:88:b1:a3:8e:10:4c:53:b6:3d:dc:82:35:46:25:
        ae:37:89:7a:f8:b0:2c:82:7c:92:5d:14:2d:e1:18:bf:ab:15:
        e5:91:aa:c5:5b:09:b5:c1:75:95:11:d2:d8:f5:25:ad:6a:38:
        23:cb:5f:26:70:ee:29:cf:59:ee:44:56:df:2c:71:61:e0:d9:
        fb:fc:06:9c:c8:e6
-----BEGIN CERTIFICATE-----
MIIEKDCCApCgAwIBAgIJAK2MCej7oojZMA0GCSqGSIb3DQEBDAUAMFExCzAJBgNV
BAYTAkZJMREwDwYDVQQHDAhIZWxzaW5raTEOMAwGA1UECgwFdzEuZmkxHzAdBgNV
BAMMFlN1aXRlIEIgUlNBIDNrIFJvb3QgQ0EwHhcNMjYwNDA2MDk1MDEwWhcNMjgw
NDA1MDk1MDEwWjA8MQswCQYDVQQGEwJGSTEOMAwGA1UECgwFdzEuZmkxHTAbBgNV
BAMMFHVzZXItcnNhMzA3Mi1yc2EyMDQ4MIIBIjANBgkqhkiG9w0BAQEFAAOCAQ8A
MIIBCgKCAQEA22b/i5Vmli5KdAKAQ/wJ+rZBeAn46b9rQf1bv8xm2AfDDexIl40s
T1j1tScH7kh8a5iiduiLlBF3aDZDHyyIn9ZA3+wnFmOuNBzV7CbF2a13qXMUhqOk
Lmdj/ejX3ccYZwrTr799IJpn/VzAfG7M2Ks9K46uCQy1I9m0+fviaeNpBShd7jcb
x8C6g87hMGIfqd2rntTdjOSk4B+l3JVIAqCf9KWocciPBr5MTkGMf5FHqAZtRsNJ
uK/FJ0ZB4iy2bWhm2sAMhL7fYcpJR/cZZjYJBRsnm4BD8FVBtE4PJXHlurjccrC1
SaiVAkmoZyp487QOq2kF6dkwrbC9JvCNMwIDAQABo4GXMIGUMAkGA1UdEwQCMAAw
HQYDVR0OBBYEFMyFqj3kN1E+cEaWjgBlw4Eg4OSHMB8GA1UdIwQYMBaAFCH379rD
NDrtzdVQwLO6Ce4/gNdwMCUGA1UdEQQeMByBGnVzZXItcnNhMzA3Mi1yc2EyMDQ4
QHcxLmZpMBMGA1UdJQQMMAoGCCsGAQUFBwMCMAsGA1UdDwQEAwIFoDANBgkqhkiG
9w0BAQwFAAOCAYEAzpH3EP4WkXEw8opTxklDtg6Q1Y3Zuxp48QHuL1pUFIjH0X9V
hE1BVTxPrHkDrW/DuCTY7CgJbLQP4X9nyDpma+swwamojMwWaQmhdSy+Q3vGP4uM
dk/LarCNqqP+Zlz9r6ND5Ehi3WV8bxLwr83DSkcH8fyOiQW5BqYirMXaauFpHvnd
p6nshQ4gG9ebwEwMWjIT8vh0uIMm6JLqzBh1FHbIr9mZ7ueQdXWGBBpgiAWnDrWp
K0omjMBiNLpPB8BVfajnjGQzM9w7zxJq4G5lZzjbgsgFw1QgmcBpWKFIltvsgIS1
j7YeDUCcBtYqybOKk/SimDWwRRc3/p5MxFDWgaVkc9e1kHw9iTnt1Qh8ztW7I59i
7EqT8mzsGANOZJH/WbxA4YsDOoeiaVIzc0PsT+WQdsFFz4ixo44QTFO2PdyCNUYl
rjeJeviwLIJ8kl0ULeEYv6sV5ZGqxVsJtcF1lRHS2PUlrWo4I8tfJnDuKc9Z7kRW
3yxxYeDZ+/wGnMjm
-----END CERTIFICATE-----
