Certificate:
    Data:
        Version: 3 (0x2)
        Serial Number:
            d8:d3:e3:a6:cb:e3:cd:9c
        Signature Algorithm: sha256WithRSAEncryption
        Issuer: C=FI, L=Tuusula, O=w1.fi, CN=Root CA
        Validity
            Not Before: Apr  6 09:47:58 2026 GMT
            Not After : Apr  6 09:47:58 2027 GMT
        Subject: C=FI, O=w1.fi, CN=server3.w1.fi
        Subject Public Key Info:
            Public Key Algorithm: rsaEncryption
                Public-Key: (2048 bit)
                Modulus:
                    00:c2:eb:ad:04:6f:4c:eb:23:b8:92:4e:75:dc:00:
                    d0:0d:d9:ad:09:21:f8:12:4a:2d:cd:db:7d:63:a1:
                    32:12:8e:b8:e3:bd:df:95:39:3a:17:65:54:f8:20:
                    d6:71:37:7d:b7:b4:72:31:7a:7a:3d:ba:74:72:f3:
                    ac:9d:16:38:35:1b:7d:50:3b:ad:96:5d:a7:c0:76:
                    0b:bb:4c:06:a8:d0:f7:2d:3d:94:a5:14:26:1a:11:
                    d8:42:1b:2d:4e:6e:60:9d:6a:cf:22:db:36:65:e2:
                    17:35:bc:69:2e:ab:30:e5:cd:fc:9a:e4:4f:0f:d1:
                    01:c3:e6:33:71:31:cd:6f:da:8c:21:9d:f7:1b:d1:
                    ed:7e:39:7a:fd:69:a3:88:1c:e6:f6:d3:3b:1a:1e:
                    d3:70:c3:ad:35:2a:22:a4:de:60:90:37:5d:e7:e0:
                    ce:9b:7d:4c:b5:cb:41:1b:9c:96:51:df:58:4d:b7:
                    67:da:95:25:60:8a:ff:6c:62:84:da:d6:24:b9:65:
                    d9:7a:59:f8:c8:bd:03:be:f6:17:d8:0e:86:ae:9a:
                    4c:7d:53:f6:b1:0e:82:cd:06:61:77:dd:46:5c:fd:
                    45:6a:f2:e8:22:ca:63:8b:d3:1c:f6:4f:10:ec:ea:
                    1a:08:1e:38:3d:80:6c:a3:48:47:f2:16:2a:07:5b:
                    f7:89
                Exponent: 65537 (0x10001)
        X509v3 extensions:
            X509v3 Basic Constraints: 
                CA:FALSE
            X509v3 Subject Key Identifier: 
                5E:84:D6:31:98:17:71:F8:63:5C:32:5B:7D:33:C0:D4:FA:36:A7:6A
            X509v3 Authority Key Identifier: 
                A4:FD:B9:39:1B:81:B3:AA:EB:88:1D:D4:81:A9:B5:11:70:CC:A7:E1
            Authority Information Access: 
                OCSP - URI:http://server.w1.fi:8888/
            X509v3 Extended Key Usage: 
                TLS Web Server Authentication
    Signature Algorithm: sha256WithRSAEncryption
    Signature Value:
        85:7f:f5:3a:c1:3b:c9:84:26:90:b4:a6:d2:65:c9:7b:2c:2e:
        35:c2:84:88:5b:11:87:2b:e0:f5:e0:8e:e0:ff:c3:bf:db:9e:
        24:dd:39:8d:af:7c:63:7d:62:e3:49:a2:9d:98:10:83:7a:7d:
        94:3b:d3:8a:bf:c2:30:59:db:d8:cb:f1:ff:3f:fa:1c:05:c9:
        d9:d7:a4:be:3b:95:9e:71:aa:55:39:7f:2d:8a:6f:82:df:ba:
        d8:63:b3:07:6e:52:bf:40:11:0e:1a:79:e8:db:1f:8d:08:e2:
        88:18:87:d5:c5:c4:8e:e5:e8:a2:b6:be:b5:82:65:91:05:68:
        cf:66:e7:ae:f3:fb:a5:ed:fa:87:cf:45:61:b0:69:92:bc:1c:
        16:7c:7e:fd:94:b9:28:dc:58:5d:0f:00:f1:45:93:9f:9b:e7:
        44:79:c6:e3:30:da:ce:a8:5f:eb:2c:4d:77:7a:79:ba:e8:98:
        d9:7a:b7:03:4e:62:cc:53:5e:d1:08:ba:50:ae:93:0c:00:44:
        e1:c4:20:e1:42:0e:8c:f9:3a:fd:66:7f:db:22:40:0f:46:eb:
        49:ee:ac:35:dc:62:3b:d1:30:87:4f:0d:da:16:66:96:9c:02:
        e2:41:f3:33:f8:cf:65:29:63:15:3d:1b:71:5f:4f:c8:f3:2c:
        15:78:ab:99
-----BEGIN CERTIFICATE-----
MIIDlDCCAnygAwIBAgIJANjT46bL482cMA0GCSqGSIb3DQEBCwUAMEExCzAJBgNV
BAYTAkZJMRAwDgYDVQQHDAdUdXVzdWxhMQ4wDAYDVQQKDAV3MS5maTEQMA4GA1UE
AwwHUm9vdCBDQTAeFw0yNjA0MDYwOTQ3NThaFw0yNzA0MDYwOTQ3NThaMDUxCzAJ
BgNVBAYTAkZJMQ4wDAYDVQQKDAV3MS5maTEWMBQGA1UEAwwNc2VydmVyMy53MS5m
aTCCASIwDQYJKoZIhvcNAQEBBQADggEPADCCAQoCggEBAMLrrQRvTOsjuJJOddwA
0A3ZrQkh+BJKLc3bfWOhMhKOuOO935U5OhdlVPgg1nE3fbe0cjF6ej26dHLzrJ0W
ODUbfVA7rZZdp8B2C7tMBqjQ9y09lKUUJhoR2EIbLU5uYJ1qzyLbNmXiFzW8aS6r
MOXN/JrkTw/RAcPmM3ExzW/ajCGd9xvR7X45ev1po4gc5vbTOxoe03DDrTUqIqTe
YJA3Xefgzpt9TLXLQRucllHfWE23Z9qVJWCK/2xihNrWJLll2XpZ+Mi9A772F9gO
hq6aTH1T9rEOgs0GYXfdRlz9RWry6CLKY4vTHPZPEOzqGggeOD2AbKNIR/IWKgdb
94kCAwEAAaOBmjCBlzAJBgNVHRMEAjAAMB0GA1UdDgQWBBRehNYxmBdx+GNcMlt9
M8DU+janajAfBgNVHSMEGDAWgBSk/bk5G4GzquuIHdSBqbURcMyn4TA1BggrBgEF
BQcBAQQpMCcwJQYIKwYBBQUHMAGGGWh0dHA6Ly9zZXJ2ZXIudzEuZmk6ODg4OC8w
EwYDVR0lBAwwCgYIKwYBBQUHAwEwDQYJKoZIhvcNAQELBQADggEBAIV/9TrBO8mE
JpC0ptJlyXssLjXChIhbEYcr4PXgjuD/w7/bniTdOY2vfGN9YuNJop2YEIN6fZQ7
04q/wjBZ29jL8f8/+hwFydnXpL47lZ5xqlU5fy2Kb4LfuthjswduUr9AEQ4aeejb
H40I4ogYh9XFxI7l6KK2vrWCZZEFaM9m567z+6Xt+ofPRWGwaZK8HBZ8fv2UuSjc
WF0PAPFFk5+b50R5xuMw2s6oX+ssTXd6ebromNl6twNOYsxTXtEIulCukwwAROHE
IOFCDoz5Ov1mf9siQA9G60nurDXcYjvRMIdPDdoWZpacAuJB8zP4z2UpYxU9G3Ff
T8jzLBV4q5k=
-----END CERTIFICATE-----
