Certificate:
    Data:
        Version: 3 (0x2)
        Serial Number:
            d8:d3:e3:a6:cb:e3:cd:9d
        Signature Algorithm: sha256WithRSAEncryption
        Issuer: C=FI, L=Tuusula, O=w1.fi, CN=Root CA
        Validity
            Not Before: Jan  1 00:00:00 2020 GMT
            Not After : Jan  2 00:00:00 2020 GMT
        Subject: C=FI, O=w1.fi, CN=server4.w1.fi
        Subject Public Key Info:
            Public Key Algorithm: rsaEncryption
                Public-Key: (2048 bit)
                Modulus:
                    00:b0:77:f1:3e:66:e7:fc:0b:51:f9:d8:a3:ae:2f:
                    f6:4a:75:38:3e:d4:47:7b:d6:24:32:b4:c8:d9:e0:
                    d0:a5:12:f4:89:a7:89:01:d9:54:43:ce:81:4a:bd:
                    ed:16:f3:7c:c1:67:36:8b:73:4d:21:91:e7:4b:7e:
                    74:c5:3b:15:b8:c6:46:7e:a9:a2:91:c3:f5:90:b3:
                    cf:f9:0c:eb:ba:6f:ee:b9:ab:77:3d:03:9e:9d:77:
                    07:bf:97:6a:d4:4d:b6:da:fd:36:54:25:e3:09:26:
                    89:7f:a1:11:c1:f6:dc:be:5c:57:a8:e6:45:57:3d:
                    98:14:06:72:ac:e9:c8:81:06:38:9c:cf:cd:0a:0e:
                    78:4e:9e:7b:10:c2:61:a5:43:ef:34:16:df:3c:e0:
                    a3:44:77:48:cd:be:e4:79:cb:31:39:9f:53:dd:a3:
                    0e:76:5a:6c:24:5e:56:35:9b:a2:7d:b3:9e:42:f1:
                    61:9c:e8:9e:1c:b8:9a:10:1e:32:29:21:cb:30:16:
                    e0:03:11:f9:88:f2:8f:04:a5:e6:a7:9c:73:e1:93:
                    d8:51:2d:bb:45:83:8f:b6:93:41:39:41:84:5f:4b:
                    ad:00:25:91:3d:16:0a:eb:f0:b8:92:e0:5c:75:65:
                    85:17:d2:80:e6:5e:66:a2:a4:df:c7:08:76:33:49:
                    cf:1d
                Exponent: 65537 (0x10001)
        X509v3 extensions:
            X509v3 Basic Constraints: 
                CA:FALSE
            X509v3 Subject Key Identifier: 
                21:B0:31:C6:14:D4:BD:5C:DF:70:24:51:34:9E:93:F5:18:B3:1C:A1
            X509v3 Authority Key Identifier: 
                A4:FD:B9:39:1B:81:B3:AA:EB:88:1D:D4:81:A9:B5:11:70:CC:A7:E1
            Authority Information Access: 
                OCSP - URI:http://server.w1.fi:8888/
            X509v3 Extended Key Usage: 
                TLS Web Server Authentication
    Signature Algorithm: sha256WithRSAEncryption
    Signature Value:
        00:a4:53:97:eb:f1:43:3d:7f:cf:e7:14:c7:af:b6:4d:5b:de:
        6b:90:f2:d8:c8:db:c3:68:01:3a:64:8e:6c:44:d8:c3:63:34:
        0c:28:2b:3a:cf:f6:93:a8:e5:ec:06:78:b8:c0:cf:7f:a9:70:
        06:b9:cf:18:9a:4a:38:ca:18:fa:c7:29:04:5d:36:28:df:48:
        d9:8e:00:5e:46:a5:92:ca:f1:ec:8e:d7:53:70:87:5f:72:0d:
        cb:0d:d5:d2:be:1f:05:4d:4f:3b:84:60:47:17:29:17:d8:bb:
        32:55:48:02:57:9e:83:7d:5d:81:89:d2:0f:4c:8a:f1:d5:87:
        25:58:3f:b2:e5:0e:2d:bc:87:2a:94:24:05:6e:4c:6b:1a:06:
        a4:82:c4:c9:02:de:fd:c4:d2:8f:a3:f4:38:e0:bc:59:74:dd:
        5d:ee:6d:e9:3f:d7:dd:d3:8a:b4:72:9e:e4:4e:31:a4:be:7f:
        d3:e9:7f:f9:76:8d:d7:88:cf:dd:c4:e6:e3:61:71:7f:bd:db:
        ae:b8:ac:cd:fb:57:96:ca:3c:00:5a:0f:33:ea:6f:51:e0:8a:
        3b:4a:f3:a2:dc:ed:e5:c4:97:14:11:14:e7:de:4b:0e:87:b3:
        5e:5d:a7:0a:50:f7:bd:0b:1d:2c:70:4a:70:d6:9d:11:db:3f:
        c4:31:74:6f
-----BEGIN CERTIFICATE-----
MIIDlDCCAnygAwIBAgIJANjT46bL482dMA0GCSqGSIb3DQEBCwUAMEExCzAJBgNV
BAYTAkZJMRAwDgYDVQQHDAdUdXVzdWxhMQ4wDAYDVQQKDAV3MS5maTEQMA4GA1UE
AwwHUm9vdCBDQTAeFw0yMDAxMDEwMDAwMDBaFw0yMDAxMDIwMDAwMDBaMDUxCzAJ
BgNVBAYTAkZJMQ4wDAYDVQQKDAV3MS5maTEWMBQGA1UEAwwNc2VydmVyNC53MS5m
aTCCASIwDQYJKoZIhvcNAQEBBQADggEPADCCAQoCggEBALB38T5m5/wLUfnYo64v
9kp1OD7UR3vWJDK0yNng0KUS9ImniQHZVEPOgUq97RbzfMFnNotzTSGR50t+dMU7
FbjGRn6popHD9ZCzz/kM67pv7rmrdz0Dnp13B7+XatRNttr9NlQl4wkmiX+hEcH2
3L5cV6jmRVc9mBQGcqzpyIEGOJzPzQoOeE6eexDCYaVD7zQW3zzgo0R3SM2+5HnL
MTmfU92jDnZabCReVjWbon2znkLxYZzonhy4mhAeMikhyzAW4AMR+YjyjwSl5qec
c+GT2FEtu0WDj7aTQTlBhF9LrQAlkT0WCuvwuJLgXHVlhRfSgOZeZqKk38cIdjNJ
zx0CAwEAAaOBmjCBlzAJBgNVHRMEAjAAMB0GA1UdDgQWBBQhsDHGFNS9XN9wJFE0
npP1GLMcoTAfBgNVHSMEGDAWgBSk/bk5G4GzquuIHdSBqbURcMyn4TA1BggrBgEF
BQcBAQQpMCcwJQYIKwYBBQUHMAGGGWh0dHA6Ly9zZXJ2ZXIudzEuZmk6ODg4OC8w
EwYDVR0lBAwwCgYIKwYBBQUHAwEwDQYJKoZIhvcNAQELBQADggEBAACkU5fr8UM9
f8/nFMevtk1b3muQ8tjI28NoATpkjmxE2MNjNAwoKzrP9pOo5ewGeLjAz3+pcAa5
zxiaSjjKGPrHKQRdNijfSNmOAF5GpZLK8eyO11Nwh19yDcsN1dK+HwVNTzuEYEcX
KRfYuzJVSAJXnoN9XYGJ0g9MivHVhyVYP7LlDi28hyqUJAVuTGsaBqSCxMkC3v3E
0o+j9DjgvFl03V3ubek/193TirRynuROMaS+f9Ppf/l2jdeIz93E5uNhcX+92664
rM37V5bKPABaDzPqb1HgijtK86Lc7eXElxQRFOfeSw6Hs15dpwpQ970LHSxwSnDW
nRHbP8QxdG8=
-----END CERTIFICATE-----
