Certificate:
    Data:
        Version: 3 (0x2)
        Serial Number:
            d8:d3:e3:a6:cb:e3:cd:9e
        Signature Algorithm: sha256WithRSAEncryption
        Issuer: C=FI, L=Tuusula, O=w1.fi, CN=Root CA
        Validity
            Not Before: Apr  6 09:47:59 2026 GMT
            Not After : Apr  6 09:47:59 2027 GMT
        Subject: C=FI, O=w1.fi, CN=server5.w1.fi
        Subject Public Key Info:
            Public Key Algorithm: rsaEncryption
                Public-Key: (2048 bit)
                Modulus:
                    00:a5:94:60:80:b8:c8:61:18:8c:02:9d:dc:cc:c4:
                    74:d1:17:b5:3b:47:9c:38:0f:3b:92:74:fb:ea:27:
                    45:44:8a:9a:2a:4d:10:25:8e:77:ce:1a:09:c9:73:
                    19:fe:dc:70:36:5e:8c:fa:8f:4c:84:bb:f7:72:e4:
                    94:4f:fc:47:2a:7d:89:92:a3:2b:5a:69:9c:c8:5a:
                    10:39:32:61:7d:0a:78:19:b4:36:eb:ac:4c:d6:af:
                    75:00:14:4e:15:2f:5f:83:ee:62:f5:ac:7b:0c:81:
                    ba:a2:08:36:7b:f0:ef:63:31:62:fb:86:a6:cf:da:
                    36:83:44:8d:75:28:b6:e4:10:f3:32:dd:8a:6c:5b:
                    ee:4f:f1:1e:53:0b:13:7c:c7:bc:f7:9e:32:80:1e:
                    63:3e:92:75:2f:c5:21:5e:f0:2a:ac:e2:34:e4:17:
                    b2:34:f7:e8:2a:12:8a:21:b8:03:e7:b6:d8:f8:32:
                    b5:fe:71:45:52:98:de:b9:3d:41:f5:90:a5:76:83:
                    c1:18:ca:50:5d:2c:52:8b:6e:4f:a7:5b:bb:d8:e3:
                    14:25:70:de:d1:c7:9d:59:cf:24:46:c7:f5:6e:6f:
                    83:66:ed:1b:1d:3e:51:04:94:67:64:df:51:22:3c:
                    c0:e1:24:0a:37:6a:dc:6a:8b:fd:45:5b:96:2d:03:
                    ac:63
                Exponent: 65537 (0x10001)
        X509v3 extensions:
            X509v3 Basic Constraints: 
                CA:FALSE
            X509v3 Subject Key Identifier: 
                32:9F:9F:30:24:73:73:CB:8D:53:3A:80:23:EB:5B:5D:4C:DD:06:01
            X509v3 Authority Key Identifier: 
                A4:FD:B9:39:1B:81:B3:AA:EB:88:1D:D4:81:A9:B5:11:70:CC:A7:E1
            Authority Information Access: 
                OCSP - URI:http://server.w1.fi:8888/
            X509v3 Extended Key Usage: 
                TLS Web Client Authentication
    Signature Algorithm: sha256WithRSAEncryption
    Signature Value:
        67:80:b9:5e:9d:e2:c6:29:79:f1:01:5a:8b:a5:5c:fe:18:fc:
        7f:4c:2f:dd:c1:72:fc:5f:65:c5:f3:a6:8e:3b:80:cc:76:fc:
        d1:8b:94:6b:20:d0:5a:bf:b4:1f:aa:ac:e1:ab:73:6a:01:ed:
        fe:ac:4c:be:d6:4c:e5:7e:d9:04:7c:d6:b7:11:09:7e:0c:6a:
        8d:2e:52:59:ed:9d:57:7c:93:03:41:40:69:65:5b:61:82:0c:
        ab:3d:29:c2:15:d3:4a:01:c3:5e:39:3b:ea:2b:d6:b7:da:2c:
        46:6c:1b:58:4e:35:82:97:01:fc:68:83:1e:9c:62:04:8d:d7:
        08:82:88:20:b7:75:58:31:b5:fb:55:c6:6b:c6:84:65:bb:28:
        bf:a8:e0:d1:75:f4:f1:78:a5:02:17:90:82:c2:6d:ac:05:9c:
        d3:1d:34:dd:b2:f0:12:5f:8a:7b:d3:cb:69:ac:7f:32:eb:1a:
        e4:70:46:75:b7:7d:aa:ba:89:ee:d3:fb:0d:4b:01:9d:5e:4e:
        ba:9a:d6:c6:65:59:7a:17:aa:0d:28:52:12:61:2d:ef:5e:36:
        f9:72:a6:aa:bc:d1:53:84:eb:76:a6:e5:06:27:07:67:8c:90:
        f2:30:3b:76:3c:3b:bd:55:80:d0:6b:bb:e8:81:d3:cb:ca:7b:
        6f:16:c8:84
-----BEGIN CERTIFICATE-----
MIIDlDCCAnygAwIBAgIJANjT46bL482eMA0GCSqGSIb3DQEBCwUAMEExCzAJBgNV
BAYTAkZJMRAwDgYDVQQHDAdUdXVzdWxhMQ4wDAYDVQQKDAV3MS5maTEQMA4GA1UE
AwwHUm9vdCBDQTAeFw0yNjA0MDYwOTQ3NTlaFw0yNzA0MDYwOTQ3NTlaMDUxCzAJ
BgNVBAYTAkZJMQ4wDAYDVQQKDAV3MS5maTEWMBQGA1UEAwwNc2VydmVyNS53MS5m
aTCCASIwDQYJKoZIhvcNAQEBBQADggEPADCCAQoCggEBAKWUYIC4yGEYjAKd3MzE
dNEXtTtHnDgPO5J0++onRUSKmipNECWOd84aCclzGf7ccDZejPqPTIS793LklE/8
Ryp9iZKjK1ppnMhaEDkyYX0KeBm0NuusTNavdQAUThUvX4PuYvWsewyBuqIINnvw
72MxYvuGps/aNoNEjXUotuQQ8zLdimxb7k/xHlMLE3zHvPeeMoAeYz6SdS/FIV7w
KqziNOQXsjT36CoSiiG4A+e22Pgytf5xRVKY3rk9QfWQpXaDwRjKUF0sUotuT6db
u9jjFCVw3tHHnVnPJEbH9W5vg2btGx0+UQSUZ2TfUSI8wOEkCjdq3GqL/UVbli0D
rGMCAwEAAaOBmjCBlzAJBgNVHRMEAjAAMB0GA1UdDgQWBBQyn58wJHNzy41TOoAj
61tdTN0GATAfBgNVHSMEGDAWgBSk/bk5G4GzquuIHdSBqbURcMyn4TA1BggrBgEF
BQcBAQQpMCcwJQYIKwYBBQUHMAGGGWh0dHA6Ly9zZXJ2ZXIudzEuZmk6ODg4OC8w
EwYDVR0lBAwwCgYIKwYBBQUHAwIwDQYJKoZIhvcNAQELBQADggEBAGeAuV6d4sYp
efEBWoulXP4Y/H9ML93BcvxfZcXzpo47gMx2/NGLlGsg0Fq/tB+qrOGrc2oB7f6s
TL7WTOV+2QR81rcRCX4Mao0uUlntnVd8kwNBQGllW2GCDKs9KcIV00oBw145O+or
1rfaLEZsG1hONYKXAfxogx6cYgSN1wiCiCC3dVgxtftVxmvGhGW7KL+o4NF19PF4
pQIXkILCbawFnNMdNN2y8BJfinvTy2msfzLrGuRwRnW3faq6ie7T+w1LAZ1eTrqa
1sZlWXoXqg0oUhJhLe9eNvlypqq80VOE63am5QYnB2eMkPIwO3Y8O71VgNBru+iB
08vKe28WyIQ=
-----END CERTIFICATE-----
