Certificate:
    Data:
        Version: 3 (0x2)
        Serial Number:
            d8:d3:e3:a6:cb:e3:cd:9b
        Signature Algorithm: sha256WithRSAEncryption
        Issuer: C=FI, L=Tuusula, O=w1.fi, CN=Root CA
        Validity
            Not Before: Apr  6 09:47:58 2026 GMT
            Not After : Apr  6 09:47:58 2027 GMT
        Subject: C=FI, O=w1.fi, CN=server.w1.fi
        Subject Public Key Info:
            Public Key Algorithm: rsaEncryption
                Public-Key: (2048 bit)
                Modulus:
                    00:fd:0e:5e:cd:19:2c:6a:41:83:d9:2c:0e:36:cd:
                    09:b0:8f:b2:c9:8c:c8:d2:03:38:6e:54:bc:43:ee:
                    ce:f8:59:b1:e9:3f:6d:d4:5e:e3:c5:73:19:3d:0b:
                    bc:29:d7:d0:6e:75:00:35:fc:f7:65:b1:b6:0f:cb:
                    06:49:cf:a9:4e:3d:c2:64:4b:18:24:0a:70:b8:6e:
                    54:dc:90:3f:6c:18:fd:b6:88:ab:37:dc:8b:4b:b5:
                    e1:ff:ed:bb:45:05:a3:f0:aa:51:2b:f1:79:06:7f:
                    2f:cd:5d:fc:e6:8a:af:1b:b9:7b:ca:43:75:01:1d:
                    8e:2d:d9:11:13:86:fb:3c:4b:60:a4:29:49:e3:d2:
                    20:20:cb:5c:0d:9c:d2:9c:30:21:11:bc:b3:74:df:
                    64:b0:b7:67:ee:6a:df:af:3d:18:02:b7:dc:e5:54:
                    75:b5:6c:40:c4:b0:8a:1b:c6:fd:ab:1e:b9:ef:d1:
                    83:09:0d:55:ba:17:88:4e:d0:bd:cf:73:36:7c:28:
                    4b:f6:aa:48:d4:e8:fb:25:d8:1d:af:c9:68:73:ac:
                    46:ae:cb:eb:79:36:57:ad:c3:70:02:15:6d:f0:a5:
                    43:73:ab:72:04:b1:16:60:74:0e:4a:c1:8f:52:28:
                    1a:95:7e:ab:d0:04:f6:fa:11:da:1b:d1:99:a4:4f:
                    9e:ed
                Exponent: 65537 (0x10001)
        X509v3 extensions:
            X509v3 Basic Constraints: 
                CA:FALSE
            X509v3 Subject Key Identifier: 
                71:26:7A:1F:72:81:97:24:11:AA:C0:75:FA:BF:31:10:69:49:D0:E7
            X509v3 Authority Key Identifier: 
                A4:FD:B9:39:1B:81:B3:AA:EB:88:1D:D4:81:A9:B5:11:70:CC:A7:E1
            Authority Information Access: 
                OCSP - URI:http://server.w1.fi:8888/
            X509v3 Subject Alternative Name: 
                DNS:server.w1.fi
            X509v3 Extended Key Usage: 
                TLS Web Server Authentication
    Signature Algorithm: sha256WithRSAEncryption
    Signature Value:
        67:25:11:11:3a:fd:94:cd:0c:94:0a:ab:45:46:2b:78:92:cc:
        5b:be:fc:da:17:0e:2d:1f:34:56:64:89:7b:99:8e:4f:d4:2f:
        82:0b:6f:2d:14:00:71:35:0f:93:36:2c:4a:e1:a3:17:26:bf:
        68:88:64:7e:aa:a5:64:2b:ab:2c:b5:a0:50:04:cd:ee:7a:a8:
        fd:de:f2:81:40:69:77:ec:f1:ef:4a:e2:9d:b7:df:00:e2:03:
        c6:c7:61:a5:66:2b:4b:ba:7e:1b:a9:46:09:28:ef:94:e2:92:
        22:e8:fb:5d:98:36:ba:a9:cb:a4:5d:27:b2:c9:21:eb:ea:ed:
        98:eb:1b:b9:6b:68:76:f1:a5:a2:38:f7:e1:c9:09:f6:99:81:
        83:18:58:0b:a4:2b:4f:6e:35:96:45:a7:7f:8a:28:b7:25:b1:
        98:41:68:4e:b1:c2:b9:19:d0:7e:b9:50:44:6c:aa:6a:0d:e5:
        90:68:7f:88:48:26:52:fc:dc:b9:db:d1:7b:3c:84:77:c2:fa:
        f5:a0:bd:33:89:3c:71:14:5b:01:83:f6:24:9c:4f:82:ad:35:
        c9:92:11:04:e6:18:4c:b1:8d:1a:da:eb:ed:27:0a:06:27:c2:
        57:1a:f2:42:d5:b4:89:71:29:2c:b3:e4:08:f4:4c:86:7f:ff:
        a0:f2:c5:f3
-----BEGIN CERTIFICATE-----
MIIDrDCCApSgAwIBAgIJANjT46bL482bMA0GCSqGSIb3DQEBCwUAMEExCzAJBgNV
BAYTAkZJMRAwDgYDVQQHDAdUdXVzdWxhMQ4wDAYDVQQKDAV3MS5maTEQMA4GA1UE
AwwHUm9vdCBDQTAeFw0yNjA0MDYwOTQ3NThaFw0yNzA0MDYwOTQ3NThaMDQxCzAJ
BgNVBAYTAkZJMQ4wDAYDVQQKDAV3MS5maTEVMBMGA1UEAwwMc2VydmVyLncxLmZp
MIIBIjANBgkqhkiG9w0BAQEFAAOCAQ8AMIIBCgKCAQEA/Q5ezRksakGD2SwONs0J
sI+yyYzI0gM4blS8Q+7O+Fmx6T9t1F7jxXMZPQu8KdfQbnUANfz3ZbG2D8sGSc+p
Tj3CZEsYJApwuG5U3JA/bBj9toirN9yLS7Xh/+27RQWj8KpRK/F5Bn8vzV385oqv
G7l7ykN1AR2OLdkRE4b7PEtgpClJ49IgIMtcDZzSnDAhEbyzdN9ksLdn7mrfrz0Y
Arfc5VR1tWxAxLCKG8b9qx6579GDCQ1VuheITtC9z3M2fChL9qpI1Oj7Jdgdr8lo
c6xGrsvreTZXrcNwAhVt8KVDc6tyBLEWYHQOSsGPUigalX6r0AT2+hHaG9GZpE+e
7QIDAQABo4GzMIGwMAkGA1UdEwQCMAAwHQYDVR0OBBYEFHEmeh9ygZckEarAdfq/
MRBpSdDnMB8GA1UdIwQYMBaAFKT9uTkbgbOq64gd1IGptRFwzKfhMDUGCCsGAQUF
BwEBBCkwJzAlBggrBgEFBQcwAYYZaHR0cDovL3NlcnZlci53MS5maTo4ODg4LzAX
BgNVHREEEDAOggxzZXJ2ZXIudzEuZmkwEwYDVR0lBAwwCgYIKwYBBQUHAwEwDQYJ
KoZIhvcNAQELBQADggEBAGclERE6/ZTNDJQKq0VGK3iSzFu+/NoXDi0fNFZkiXuZ
jk/UL4ILby0UAHE1D5M2LErhoxcmv2iIZH6qpWQrqyy1oFAEze56qP3e8oFAaXfs
8e9K4p233wDiA8bHYaVmK0u6fhupRgko75TikiLo+12YNrqpy6RdJ7LJIevq7Zjr
G7lraHbxpaI49+HJCfaZgYMYWAukK09uNZZFp3+KKLclsZhBaE6xwrkZ0H65UERs
qmoN5ZBof4hIJlL83Lnb0Xs8hHfC+vWgvTOJPHEUWwGD9iScT4KtNcmSEQTmGEyx
jRra6+0nCgYnwlca8kLVtIlxKSyz5Aj0TIZ//6DyxfM=
-----END CERTIFICATE-----
