Certificate:
    Data:
        Version: 3 (0x2)
        Serial Number:
            d8:d3:e3:a6:cb:e3:cd:9f
        Signature Algorithm: sha256WithRSAEncryption
        Issuer: C=FI, L=Tuusula, O=w1.fi, CN=Root CA
        Validity
            Not Before: Apr  6 09:47:59 2026 GMT
            Not After : Apr  6 09:47:59 2027 GMT
        Subject: C=FI, O=w1.fi, CN=server6.w1.fi
        Subject Public Key Info:
            Public Key Algorithm: rsaEncryption
                Public-Key: (2048 bit)
                Modulus:
                    00:d0:23:f4:80:12:be:4a:64:4d:af:99:af:52:ef:
                    8d:f5:73:9a:1a:28:2b:92:e8:d4:90:25:3e:85:47:
                    9f:c9:c4:b9:7a:35:24:84:2f:1e:51:16:66:d3:ac:
                    31:ea:f1:63:a4:4c:ea:26:f0:fa:61:c7:9f:f2:74:
                    69:6a:78:09:c5:c9:89:74:db:6d:ba:c7:b6:b1:f0:
                    61:1f:ef:3a:1c:d5:c6:fc:95:5d:9b:37:d6:5b:cb:
                    37:93:59:ed:50:f2:6a:a2:01:5c:9e:22:af:3a:31:
                    d9:ee:eb:33:49:93:4e:46:ee:9d:7b:86:86:da:2b:
                    1d:f9:f3:a2:01:7d:0d:55:1c:3b:67:e9:c9:fb:bc:
                    a9:52:4c:4a:21:85:68:50:2f:e4:05:c1:3f:e0:b3:
                    a3:25:d4:6c:2e:61:7c:9d:d5:da:93:bb:19:fe:ea:
                    bf:f2:c8:f9:dc:de:48:54:e1:fe:d4:b5:94:5a:3f:
                    2c:2b:8c:b1:6c:ef:3a:b0:d2:0c:2c:13:75:61:db:
                    97:6b:fa:6b:f9:9d:f7:14:aa:35:72:d8:4c:0b:a1:
                    5c:08:c5:87:d4:e4:87:1d:6b:0a:50:1f:b5:0e:3f:
                    bb:36:8b:c6:e0:bd:1e:1a:e1:1c:f3:37:a4:91:65:
                    4c:43:b4:9e:cc:1b:61:68:09:bd:1e:ab:61:bd:c1:
                    91:71
                Exponent: 65537 (0x10001)
        X509v3 extensions:
            X509v3 Basic Constraints: 
                CA:FALSE
            X509v3 Subject Key Identifier: 
                AB:D2:88:CA:9C:44:26:89:2E:C0:B9:8D:46:DD:5C:69:02:9E:01:CB
            X509v3 Authority Key Identifier: 
                A4:FD:B9:39:1B:81:B3:AA:EB:88:1D:D4:81:A9:B5:11:70:CC:A7:E1
            Authority Information Access: 
                OCSP - URI:http://server.w1.fi:8888/
            X509v3 Extended Key Usage: 
                TLS Web Client Authentication, TLS Web Server Authentication
    Signature Algorithm: sha256WithRSAEncryption
    Signature Value:
        45:3b:97:3c:b1:51:ca:f5:07:ed:95:53:c2:09:4b:6b:3a:bb:
        c1:24:37:c0:08:93:e5:4b:fa:4b:f6:37:b7:9e:19:94:28:ef:
        f7:b2:4f:b1:b5:77:75:b0:bd:df:96:f1:89:8d:e4:bf:b6:64:
        40:a0:9a:7a:3c:92:0a:e9:58:52:d4:5d:d8:85:59:80:78:52:
        8d:89:35:c5:f6:a1:9f:e8:cd:06:1a:ea:f7:2f:dc:09:a6:31:
        db:33:f4:11:43:fa:15:ce:ba:7d:d1:24:66:93:82:c8:30:14:
        7a:1a:13:61:c4:77:cc:34:15:e1:88:1b:28:af:b3:04:00:4b:
        4c:15:62:d0:ab:2b:f2:75:48:5c:a2:44:53:c8:b4:26:85:97:
        77:fd:96:68:f8:72:eb:6c:76:4d:bd:91:a8:6a:c6:82:ec:a5:
        3d:e1:12:d7:16:3b:c3:03:c5:ff:37:08:ed:e3:39:3a:1e:fb:
        76:b3:13:cd:6d:08:0f:b8:8f:92:3e:f1:c8:6e:2a:a7:69:78:
        35:e1:dc:9e:a5:b1:8b:a5:ea:5c:b7:cc:a2:c3:16:74:e5:1d:
        93:29:0a:b3:76:55:7c:b0:3e:19:b1:2c:89:de:0b:fc:24:c7:
        ac:7e:f3:8d:c3:27:d8:56:2f:29:5f:92:ff:cd:13:37:58:b5:
        6f:22:7a:a1
-----BEGIN CERTIFICATE-----
MIIDnjCCAoagAwIBAgIJANjT46bL482fMA0GCSqGSIb3DQEBCwUAMEExCzAJBgNV
BAYTAkZJMRAwDgYDVQQHDAdUdXVzdWxhMQ4wDAYDVQQKDAV3MS5maTEQMA4GA1UE
AwwHUm9vdCBDQTAeFw0yNjA0MDYwOTQ3NTlaFw0yNzA0MDYwOTQ3NTlaMDUxCzAJ
BgNVBAYTAkZJMQ4wDAYDVQQKDAV3MS5maTEWMBQGA1UEAwwNc2VydmVyNi53MS5m
aTCCASIwDQYJKoZIhvcNAQEBBQADggEPADCCAQoCggEBANAj9IASvkpkTa+Zr1Lv
jfVzmhooK5Lo1JAlPoVHn8nEuXo1JIQvHlEWZtOsMerxY6RM6ibw+mHHn/J0aWp4
CcXJiXTbbbrHtrHwYR/vOhzVxvyVXZs31lvLN5NZ7VDyaqIBXJ4irzox2e7rM0mT
TkbunXuGhtorHfnzogF9DVUcO2fpyfu8qVJMSiGFaFAv5AXBP+CzoyXUbC5hfJ3V
2pO7Gf7qv/LI+dzeSFTh/tS1lFo/LCuMsWzvOrDSDCwTdWHbl2v6a/md9xSqNXLY
TAuhXAjFh9Tkhx1rClAftQ4/uzaLxuC9HhrhHPM3pJFlTEO0nswbYWgJvR6rYb3B
kXECAwEAAaOBpDCBoTAJBgNVHRMEAjAAMB0GA1UdDgQWBBSr0ojKnEQmiS7AuY1G
3VxpAp4ByzAfBgNVHSMEGDAWgBSk/bk5G4GzquuIHdSBqbURcMyn4TA1BggrBgEF
BQcBAQQpMCcwJQYIKwYBBQUHMAGGGWh0dHA6Ly9zZXJ2ZXIudzEuZmk6ODg4OC8w
HQYDVR0lBBYwFAYIKwYBBQUHAwIGCCsGAQUFBwMBMA0GCSqGSIb3DQEBCwUAA4IB
AQBFO5c8sVHK9QftlVPCCUtrOrvBJDfACJPlS/pL9je3nhmUKO/3sk+xtXd1sL3f
lvGJjeS/tmRAoJp6PJIK6VhS1F3YhVmAeFKNiTXF9qGf6M0GGur3L9wJpjHbM/QR
Q/oVzrp90SRmk4LIMBR6GhNhxHfMNBXhiBsor7MEAEtMFWLQqyvydUhcokRTyLQm
hZd3/ZZo+HLrbHZNvZGoasaC7KU94RLXFjvDA8X/Nwjt4zk6Hvt2sxPNbQgPuI+S
PvHIbiqnaXg14dyepbGLpepct8yiwxZ05R2TKQqzdlV8sD4ZsSyJ3gv8JMesfvON
wyfYVi8pX5L/zRM3WLVvInqh
-----END CERTIFICATE-----
