Certificate:
    Data:
        Version: 3 (0x2)
        Serial Number:
            d8:d3:e3:a6:cb:e3:cd:a3
        Signature Algorithm: sha256WithRSAEncryption
        Issuer: C=FI, L=Tuusula, O=w1.fi, CN=Root CA
        Validity
            Not Before: Apr  6 09:47:59 2026 GMT
            Not After : Apr  6 09:47:59 2027 GMT
        Subject: C=FI, O=w1.fi, CN=Test User
        Subject Public Key Info:
            Public Key Algorithm: rsaEncryption
                Public-Key: (2048 bit)
                Modulus:
                    00:bc:24:08:d9:07:6d:19:0e:94:5c:6b:d9:8a:84:
                    1b:03:22:e2:1a:06:42:d3:0b:60:8d:5f:31:04:06:
                    fa:a2:40:6a:0c:24:29:58:cd:83:bf:3a:9d:7f:37:
                    0d:4d:27:5d:d5:57:57:1c:f3:be:75:3f:3a:4c:44:
                    6f:02:2f:5b:8b:2c:b0:5c:47:29:19:31:08:d1:28:
                    f5:1e:9c:5b:9c:b7:e7:6b:40:35:10:3e:7f:66:67:
                    16:a1:4e:68:8a:71:cc:32:58:e3:08:87:a2:2a:07:
                    2d:7f:73:f6:43:e5:7f:f4:f6:74:ae:27:e8:d2:5c:
                    ae:9b:82:d9:a5:2a:72:76:84:2f:e3:62:aa:41:1e:
                    de:33:b7:64:f8:79:6f:fa:09:b5:bc:b0:8c:cd:34:
                    82:2d:c4:10:55:89:ea:6c:38:92:fe:61:d6:64:84:
                    04:d4:0a:37:32:37:8d:c3:55:d1:fc:ab:b8:55:06:
                    a9:00:4f:31:e2:42:f1:e7:b4:2e:9c:45:0d:dc:a9:
                    f9:ad:b2:77:c1:f0:b1:c3:a2:5a:26:90:bd:19:2f:
                    46:1d:a5:21:3d:f0:35:62:94:c8:cf:33:3f:d8:a2:
                    5d:df:cc:58:00:08:8d:ed:b1:04:c5:2b:3f:1a:15:
                    f6:92:08:d4:f1:42:cd:6c:db:f2:ff:e0:6e:69:84:
                    d8:8b
                Exponent: 65537 (0x10001)
        X509v3 extensions:
            X509v3 Basic Constraints: 
                CA:FALSE
            X509v3 Subject Key Identifier: 
                FB:85:00:A8:DF:D6:0C:0E:A7:E3:39:61:D9:BE:CE:2A:EF:6D:28:D8
            X509v3 Authority Key Identifier: 
                A4:FD:B9:39:1B:81:B3:AA:EB:88:1D:D4:81:A9:B5:11:70:CC:A7:E1
            Authority Information Access: 
                OCSP - URI:http://server.w1.fi:8888/
            X509v3 Extended Key Usage: 
                TLS Web Client Authentication
    Signature Algorithm: sha256WithRSAEncryption
    Signature Value:
        b2:d8:0a:1a:86:d1:b8:d4:9a:b6:3b:6e:09:4c:6e:dd:11:0c:
        80:4f:70:38:14:bd:78:f9:f9:55:51:01:0b:8c:0d:e9:7d:84:
        0c:b4:e2:e0:e5:24:69:0e:d8:45:a7:80:f4:de:a4:a3:45:b4:
        ef:5f:d9:fd:2d:2c:65:c9:78:81:36:49:3e:36:d4:f1:36:42:
        29:ee:86:35:9d:fe:17:bd:09:6e:46:fb:86:11:97:26:ea:89:
        5b:44:00:d5:33:8f:00:91:6e:cb:88:0d:39:34:9b:7d:1f:5b:
        62:ab:bf:63:8f:e1:4a:46:80:db:70:69:15:21:b1:97:27:65:
        4a:c2:16:de:ad:7a:57:54:53:c7:6a:a2:de:a2:08:f7:b7:47:
        91:b7:ed:54:44:c1:5d:60:f2:4f:ba:82:10:ec:2b:00:71:08:
        4f:ba:17:7e:5a:e2:eb:f4:ed:6f:9b:d5:0f:9a:1e:df:a2:98:
        ab:3b:57:1d:5a:84:ac:8a:c7:49:28:8f:f8:3a:c3:aa:d6:3d:
        e9:12:42:52:aa:b5:de:56:53:7b:0e:3a:5f:f5:5f:1c:65:8b:
        84:97:c1:6d:20:da:05:9b:c5:68:56:42:fe:3d:fc:9f:40:9e:
        55:89:5c:70:55:1d:14:46:cf:17:eb:8a:1f:ff:76:45:a8:66:
        bc:7d:fa:6a
-----BEGIN CERTIFICATE-----
MIIDkDCCAnigAwIBAgIJANjT46bL482jMA0GCSqGSIb3DQEBCwUAMEExCzAJBgNV
BAYTAkZJMRAwDgYDVQQHDAdUdXVzdWxhMQ4wDAYDVQQKDAV3MS5maTEQMA4GA1UE
AwwHUm9vdCBDQTAeFw0yNjA0MDYwOTQ3NTlaFw0yNzA0MDYwOTQ3NTlaMDExCzAJ
BgNVBAYTAkZJMQ4wDAYDVQQKDAV3MS5maTESMBAGA1UEAwwJVGVzdCBVc2VyMIIB
IjANBgkqhkiG9w0BAQEFAAOCAQ8AMIIBCgKCAQEAvCQI2QdtGQ6UXGvZioQbAyLi
GgZC0wtgjV8xBAb6okBqDCQpWM2DvzqdfzcNTSdd1VdXHPO+dT86TERvAi9biyyw
XEcpGTEI0Sj1HpxbnLfna0A1ED5/ZmcWoU5oinHMMljjCIeiKgctf3P2Q+V/9PZ0
rifo0lyum4LZpSpydoQv42KqQR7eM7dk+Hlv+gm1vLCMzTSCLcQQVYnqbDiS/mHW
ZIQE1Ao3MjeNw1XR/Ku4VQapAE8x4kLx57QunEUN3Kn5rbJ3wfCxw6JaJpC9GS9G
HaUhPfA1YpTIzzM/2KJd38xYAAiN7bEExSs/GhX2kgjU8ULNbNvy/+BuaYTYiwID
AQABo4GaMIGXMAkGA1UdEwQCMAAwHQYDVR0OBBYEFPuFAKjf1gwOp+M5Ydm+zirv
bSjYMB8GA1UdIwQYMBaAFKT9uTkbgbOq64gd1IGptRFwzKfhMDUGCCsGAQUFBwEB
BCkwJzAlBggrBgEFBQcwAYYZaHR0cDovL3NlcnZlci53MS5maTo4ODg4LzATBgNV
HSUEDDAKBggrBgEFBQcDAjANBgkqhkiG9w0BAQsFAAOCAQEAstgKGobRuNSatjtu
CUxu3REMgE9wOBS9ePn5VVEBC4wN6X2EDLTi4OUkaQ7YRaeA9N6ko0W071/Z/S0s
Zcl4gTZJPjbU8TZCKe6GNZ3+F70Jbkb7hhGXJuqJW0QA1TOPAJFuy4gNOTSbfR9b
Yqu/Y4/hSkaA23BpFSGxlydlSsIW3q16V1RTx2qi3qII97dHkbftVETBXWDyT7qC
EOwrAHEIT7oXflri6/Ttb5vVD5oe36KYqztXHVqErIrHSSiP+DrDqtY96RJCUqq1
3lZTew46X/VfHGWLhJfBbSDaBZvFaFZC/j38n0CeVYlccFUdFEbPF+uKH/92Rahm
vH36ag==
-----END CERTIFICATE-----
